target datalayout = "e-m:e-p270:32:32-p271:32:32-p272:64:64-i64:64-i128:128-f80:128-n8:16:32:64-S128"
target triple = "x86_64-pc-linux-gnu"

%"class.llvm::MCInstrDesc" = type { i16, i16, i8, i8, i16, i8, i8, i16, i16, i64, i64 }
%"class.llvm::MCOperandInfo" = type { i16, i8, i8, i16 }
%"class.llvm::Register" = type { i32 }
%"class.llvm::MachineInstr" = type <{ %"class.llvm::ilist_node_with_parent", ptr, ptr, ptr, [3 x i8], %"class.llvm::ArrayRecycler<llvm::MachineOperand>::Capacity", i32, %"class.llvm::PointerSumType", %"class.llvm::DebugLoc", i32, i16, [2 x i8] }>
%"class.llvm::ilist_node_with_parent" = type { %"class.llvm::ilist_node" }
%"class.llvm::ilist_node" = type { %"class.llvm::ilist_node_impl.148" }
%"class.llvm::ilist_node_impl.148" = type { %"class.llvm::ilist_node_base.149" }
%"class.llvm::ilist_node_base.149" = type { %"class.llvm::ilist_detail::node_base_prevnext.150" }
%"class.llvm::ilist_detail::node_base_prevnext.150" = type { %"class.llvm::PointerIntPair", ptr }
%"class.llvm::PointerIntPair" = type { %"struct.llvm::detail::PunnedPointer" }
%"struct.llvm::detail::PunnedPointer" = type { [8 x i8] }
%"class.llvm::ArrayRecycler<llvm::MachineOperand>::Capacity" = type { i8 }
%"class.llvm::PointerSumType" = type { %"union.llvm::PointerSumType<llvm::MachineInstr::ExtraInfoInlineKinds, llvm::PointerSumTypeMember<0, llvm::MachineMemOperand *>, llvm::PointerSumTypeMember<1, llvm::MCSymbol *>, llvm::PointerSumTypeMember<2, llvm::MCSymbol *>, llvm::PointerSumTypeMember<3, llvm::MachineInstr::ExtraInfo *>>::StorageT" }
%"union.llvm::PointerSumType<llvm::MachineInstr::ExtraInfoInlineKinds, llvm::PointerSumTypeMember<0, llvm::MachineMemOperand *>, llvm::PointerSumTypeMember<1, llvm::MCSymbol *>, llvm::PointerSumTypeMember<2, llvm::MCSymbol *>, llvm::PointerSumTypeMember<3, llvm::MachineInstr::ExtraInfo *>>::StorageT" = type { i64 }
%"class.llvm::DebugLoc" = type { %"class.llvm::TypedTrackingMDRef" }
%"class.llvm::TypedTrackingMDRef" = type { %"class.llvm::TrackingMDRef" }
%"class.llvm::TrackingMDRef" = type { ptr }
%"class.llvm::MachineOperand" = type { i32, %union.anon.152, ptr, %"union.llvm::MachineOperand::ContentsUnion" }
%union.anon.152 = type { i32 }
%"union.llvm::MachineOperand::ContentsUnion" = type { %"class.llvm::ArrayRef.153" }
%"class.llvm::ArrayRef.153" = type { ptr, i64 }
%"class.llvm::ArrayRef.374" = type { ptr, i64 }

; Function Attrs: mustprogress nounwind uwtable
define linkonce_odr hidden void @_ZN4llvm8ArrayRefINS_13MCOperandInfoEEC2EPKS1_m(ptr noundef nonnull align 8 dereferenceable(16) %0, ptr noundef %1, i64 noundef %2) unnamed_addr #0 comdat align 2 {
  %4 = alloca ptr, align 8
  %5 = alloca ptr, align 8
  %6 = alloca i64, align 8
  store ptr %0, ptr %4, align 8
  store ptr %1, ptr %5, align 8
  store i64 %2, ptr %6, align 8
  %7 = load ptr, ptr %4, align 8
  %8 = getelementptr inbounds nuw %"class.llvm::ArrayRef.374", ptr %7, i32 0, i32 0
  %9 = load ptr, ptr %5, align 8
  store ptr %9, ptr %8, align 8
  %10 = getelementptr inbounds nuw %"class.llvm::ArrayRef.374", ptr %7, i32 0, i32 1
  %11 = load i64, ptr %6, align 8
  store i64 %11, ptr %10, align 8
  ret void
}

; Function Attrs: mustprogress nounwind uwtable
define linkonce_odr hidden noundef nonnull align 2 dereferenceable(6) ptr @_ZNK4llvm8ArrayRefINS_13MCOperandInfoEEixEm(ptr noundef nonnull align 8 dereferenceable(16) %0, i64 noundef %1) #0 comdat align 2 {
  %3 = alloca ptr, align 8
  %4 = alloca i64, align 8
  store ptr %0, ptr %3, align 8
  store i64 %1, ptr %4, align 8
  %5 = load ptr, ptr %3, align 8
  %6 = getelementptr inbounds nuw %"class.llvm::ArrayRef.374", ptr %5, i32 0, i32 0
  %7 = load ptr, ptr %6, align 8
  %8 = load i64, ptr %4, align 8
  %9 = getelementptr inbounds %"class.llvm::MCOperandInfo", ptr %7, i64 %8
  ret ptr %9
}

; Function Attrs: mustprogress nounwind uwtable
define linkonce_odr hidden { ptr, i64 } @_ZNK4llvm11MCInstrDesc8operandsEv(ptr noundef nonnull align 8 dereferenceable(32) %0) #0 comdat align 2 {
  %2 = alloca %"class.llvm::ArrayRef.374", align 8
  %3 = alloca ptr, align 8
  %4 = alloca ptr, align 8
  store ptr %0, ptr %3, align 8
  %5 = load ptr, ptr %3, align 8
  %6 = getelementptr inbounds nuw %"class.llvm::MCInstrDesc", ptr %5, i32 0, i32 0
  %7 = load i16, ptr %6, align 8
  %8 = zext i16 %7 to i32
  %9 = sext i32 %8 to i64
  %10 = getelementptr inbounds %"class.llvm::MCInstrDesc", ptr %5, i64 %9
  %11 = getelementptr inbounds %"class.llvm::MCInstrDesc", ptr %10, i64 1
  store ptr %11, ptr %4, align 8
  %12 = load ptr, ptr %4, align 8
  %13 = getelementptr inbounds nuw %"class.llvm::MCInstrDesc", ptr %5, i32 0, i32 8
  %14 = load i16, ptr %13, align 4
  %15 = zext i16 %14 to i32
  %16 = sext i32 %15 to i64
  %17 = getelementptr inbounds %"class.llvm::MCOperandInfo", ptr %12, i64 %16
  %18 = getelementptr inbounds nuw %"class.llvm::MCInstrDesc", ptr %5, i32 0, i32 1
  %19 = load i16, ptr %18, align 2
  %20 = zext i16 %19 to i64
  call void @_ZN4llvm8ArrayRefINS_13MCOperandInfoEEC2EPKS1_m(ptr noundef nonnull align 8 dereferenceable(16) %2, ptr noundef %17, i64 noundef %20)
  %21 = load { ptr, i64 }, ptr %2, align 8
  ret { ptr, i64 } %21
}

; Function Attrs: mustprogress nounwind uwtable
define linkonce_odr hidden noundef zeroext i1 @_ZNK4llvm8RegistereqERKS0_(ptr noundef nonnull align 4 dereferenceable(4) %0, ptr noundef nonnull align 4 dereferenceable(4) %1) #0 comdat align 2 {
  %3 = alloca ptr, align 8
  %4 = alloca ptr, align 8
  store ptr %0, ptr %3, align 8
  store ptr %1, ptr %4, align 8
  %5 = load ptr, ptr %3, align 8
  %6 = getelementptr inbounds nuw %"class.llvm::Register", ptr %5, i32 0, i32 0
  %7 = load i32, ptr %6, align 4
  %8 = load ptr, ptr %4, align 8
  %9 = getelementptr inbounds nuw %"class.llvm::Register", ptr %8, i32 0, i32 0
  %10 = load i32, ptr %9, align 4
  %11 = icmp eq i32 %7, %10
  ret i1 %11
}

; Function Attrs: mustprogress nounwind uwtable
define linkonce_odr hidden noundef i32 @_ZNK4llvm11MCInstrDesc20getOperandConstraintEjNS_4MCOI17OperandConstraintE(ptr noundef nonnull align 8 dereferenceable(32) %0, i32 noundef %1, i32 noundef %2) #0 comdat align 2 {
  %4 = alloca i32, align 4
  %5 = alloca ptr, align 8
  %6 = alloca i32, align 4
  %7 = alloca i32, align 4
  %8 = alloca %"class.llvm::ArrayRef.374", align 8
  %9 = alloca i32, align 4
  %10 = alloca %"class.llvm::ArrayRef.374", align 8
  store ptr %0, ptr %5, align 8
  store i32 %1, ptr %6, align 4
  store i32 %2, ptr %7, align 4
  %11 = load ptr, ptr %5, align 8
  %12 = load i32, ptr %6, align 4
  %13 = getelementptr inbounds nuw %"class.llvm::MCInstrDesc", ptr %11, i32 0, i32 1
  %14 = load i16, ptr %13, align 2
  %15 = zext i16 %14 to i32
  %16 = icmp ult i32 %12, %15
  br i1 %16, label %17, label %33

17:                                               ; preds = %3
  %18 = call { ptr, i64 } @_ZNK4llvm11MCInstrDesc8operandsEv(ptr noundef nonnull align 8 dereferenceable(32) %11)
  %19 = getelementptr inbounds nuw { ptr, i64 }, ptr %8, i32 0, i32 0
  %20 = extractvalue { ptr, i64 } %18, 0
  store ptr %20, ptr %19, align 8
  %21 = getelementptr inbounds nuw { ptr, i64 }, ptr %8, i32 0, i32 1
  %22 = extractvalue { ptr, i64 } %18, 1
  store i64 %22, ptr %21, align 8
  %23 = load i32, ptr %6, align 4
  %24 = zext i32 %23 to i64
  %25 = call noundef nonnull align 2 dereferenceable(6) ptr @_ZNK4llvm8ArrayRefINS_13MCOperandInfoEEixEm(ptr noundef nonnull align 8 dereferenceable(16) %8, i64 noundef %24)
  %26 = getelementptr inbounds nuw %"class.llvm::MCOperandInfo", ptr %25, i32 0, i32 3
  %27 = load i16, ptr %26, align 2
  %28 = zext i16 %27 to i32
  %29 = load i32, ptr %7, align 4
  %30 = shl i32 1, %29
  %31 = and i32 %28, %30
  %32 = icmp ne i32 %31, 0
  br label %33

33:                                               ; preds = %17, %3
  %34 = phi i1 [ false, %3 ], [ %32, %17 ]
  br i1 %34, label %35, label %53

35:                                               ; preds = %33
  %36 = load i32, ptr %7, align 4
  %37 = mul nsw i32 %36, 4
  %38 = add nsw i32 4, %37
  store i32 %38, ptr %9, align 4
  %39 = call { ptr, i64 } @_ZNK4llvm11MCInstrDesc8operandsEv(ptr noundef nonnull align 8 dereferenceable(32) %11)
  %40 = getelementptr inbounds nuw { ptr, i64 }, ptr %10, i32 0, i32 0
  %41 = extractvalue { ptr, i64 } %39, 0
  store ptr %41, ptr %40, align 8
  %42 = getelementptr inbounds nuw { ptr, i64 }, ptr %10, i32 0, i32 1
  %43 = extractvalue { ptr, i64 } %39, 1
  store i64 %43, ptr %42, align 8
  %44 = load i32, ptr %6, align 4
  %45 = zext i32 %44 to i64
  %46 = call noundef nonnull align 2 dereferenceable(6) ptr @_ZNK4llvm8ArrayRefINS_13MCOperandInfoEEixEm(ptr noundef nonnull align 8 dereferenceable(16) %10, i64 noundef %45)
  %47 = getelementptr inbounds nuw %"class.llvm::MCOperandInfo", ptr %46, i32 0, i32 3
  %48 = load i16, ptr %47, align 2
  %49 = zext i16 %48 to i32
  %50 = load i32, ptr %9, align 4
  %51 = ashr i32 %49, %50
  %52 = and i32 %51, 15
  store i32 %52, ptr %4, align 4
  br label %54

53:                                               ; preds = %33
  store i32 -1, ptr %4, align 4
  br label %54

54:                                               ; preds = %53, %35
  %55 = load i32, ptr %4, align 4
  ret i32 %55
}

; Function Attrs: mustprogress nounwind uwtable
define linkonce_odr hidden void @_ZN4llvm8RegisterC2Ej(ptr noundef nonnull align 4 dereferenceable(4) %0, i32 noundef %1) unnamed_addr #0 comdat align 2 {
  %3 = alloca ptr, align 8
  %4 = alloca i32, align 4
  store ptr %0, ptr %3, align 8
  store i32 %1, ptr %4, align 4
  %5 = load ptr, ptr %3, align 8
  %6 = getelementptr inbounds nuw %"class.llvm::Register", ptr %5, i32 0, i32 0
  %7 = load i32, ptr %4, align 4
  store i32 %7, ptr %6, align 4
  ret void
}

; Function Attrs: mustprogress nounwind uwtable
define linkonce_odr hidden i32 @_ZNK4llvm14MachineOperand6getRegEv(ptr noundef nonnull align 8 dereferenceable(32) %0) #0 comdat align 2 {
  %2 = alloca %"class.llvm::Register", align 4
  %3 = alloca ptr, align 8
  store ptr %0, ptr %3, align 8
  %4 = load ptr, ptr %3, align 8
  %5 = getelementptr inbounds nuw %"class.llvm::MachineOperand", ptr %4, i32 0, i32 1
  %6 = load i32, ptr %5, align 4
  call void @_ZN4llvm8RegisterC2Ej(ptr noundef nonnull align 4 dereferenceable(4) %2, i32 noundef %6)
  %7 = getelementptr inbounds nuw %"class.llvm::Register", ptr %2, i32 0, i32 0
  %8 = load i32, ptr %7, align 4
  ret i32 %8
}

; Function Attrs: mustprogress nounwind uwtable
define linkonce_odr hidden noundef nonnull align 8 dereferenceable(32) ptr @_ZN4llvm12MachineInstr10getOperandEj(ptr noundef nonnull align 8 dereferenceable(70) %0, i32 noundef %1) #0 comdat align 2 {
  %3 = alloca ptr, align 8
  %4 = alloca i32, align 4
  store ptr %0, ptr %3, align 8
  store i32 %1, ptr %4, align 4
  %5 = load ptr, ptr %3, align 8
  %6 = getelementptr inbounds nuw %"class.llvm::MachineInstr", ptr %5, i32 0, i32 3
  %7 = load ptr, ptr %6, align 8
  %8 = load i32, ptr %4, align 4
  %9 = zext i32 %8 to i64
  %10 = getelementptr inbounds %"class.llvm::MachineOperand", ptr %7, i64 %9
  ret ptr %10
}

; Function Attrs: mustprogress nounwind uwtable
define linkonce_odr hidden noundef i32 @_ZNK4llvm11MCInstrDesc10getNumDefsEv(ptr noundef nonnull align 8 dereferenceable(32) %0) #0 comdat align 2 {
  %2 = alloca ptr, align 8
  store ptr %0, ptr %2, align 8
  %3 = load ptr, ptr %2, align 8
  %4 = getelementptr inbounds nuw %"class.llvm::MCInstrDesc", ptr %3, i32 0, i32 2
  %5 = load i8, ptr %4, align 4
  %6 = zext i8 %5 to i32
  ret i32 %6
}

; Function Attrs: mustprogress nounwind uwtable
define linkonce_odr hidden noundef nonnull align 8 dereferenceable(32) ptr @_ZNK4llvm12MachineInstr7getDescEv(ptr noundef nonnull align 8 dereferenceable(70) %0) #0 comdat align 2 {
  %2 = alloca ptr, align 8
  store ptr %0, ptr %2, align 8
  %3 = load ptr, ptr %2, align 8
  %4 = getelementptr inbounds nuw %"class.llvm::MachineInstr", ptr %3, i32 0, i32 1
  %5 = load ptr, ptr %4, align 8
  ret ptr %5
}

; Function Attrs: mustprogress nounwind uwtable
define dso_local noundef i32 @_ZNK4llvm12X86InstrInfo22commuteOperandsForFoldERNS_12MachineInstrEj(ptr noundef nonnull align 8 dereferenceable(416) %0, ptr noundef nonnull align 8 dereferenceable(70) %1, i32 noundef %2) #0 align 2 {
  %4 = alloca i32, align 4
  %5 = alloca ptr, align 8
  %6 = alloca ptr, align 8
  %7 = alloca i32, align 4
  %8 = alloca i32, align 4
  %9 = alloca i8, align 1
  %10 = alloca %"class.llvm::Register", align 4
  %11 = alloca %"class.llvm::Register", align 4
  %12 = alloca %"class.llvm::Register", align 4
  %13 = alloca i8, align 1
  %14 = alloca i8, align 1
  store ptr %0, ptr %5, align 8
  store ptr %1, ptr %6, align 8
  store i32 %2, ptr %7, align 4
  %15 = load ptr, ptr %5, align 8
  store i32 -1, ptr %8, align 4
  %16 = load ptr, ptr %6, align 8
  %17 = call noundef zeroext i1 @_ZNK4llvm12X86InstrInfo21findCommutedOpIndicesERKNS_12MachineInstrERjS4_(ptr noundef nonnull align 8 dereferenceable(416) %15, ptr noundef nonnull align 8 dereferenceable(70) %16, ptr noundef nonnull align 4 dereferenceable(4) %7, ptr noundef nonnull align 4 dereferenceable(4) %8)
  br i1 %17, label %20, label %18

18:                                               ; preds = %3
  %19 = load i32, ptr %7, align 4
  store i32 %19, ptr %4, align 4
  br label %86

20:                                               ; preds = %3
  %21 = load ptr, ptr %6, align 8
  %22 = call noundef nonnull align 8 dereferenceable(32) ptr @_ZNK4llvm12MachineInstr7getDescEv(ptr noundef nonnull align 8 dereferenceable(70) %21)
  %23 = call noundef i32 @_ZNK4llvm11MCInstrDesc10getNumDefsEv(ptr noundef nonnull align 8 dereferenceable(32) %22)
  %24 = icmp ne i32 %23, 0
  %25 = zext i1 %24 to i8
  store i8 %25, ptr %9, align 1
  %26 = load i8, ptr %9, align 1
  %27 = trunc i8 %26 to i1
  br i1 %27, label %28, label %33

28:                                               ; preds = %20
  %29 = load ptr, ptr %6, align 8
  %30 = call noundef nonnull align 8 dereferenceable(32) ptr @_ZN4llvm12MachineInstr10getOperandEj(ptr noundef nonnull align 8 dereferenceable(70) %29, i32 noundef 0)
  %31 = call i32 @_ZNK4llvm14MachineOperand6getRegEv(ptr noundef nonnull align 8 dereferenceable(32) %30)
  %32 = getelementptr inbounds nuw %"class.llvm::Register", ptr %10, i32 0, i32 0
  store i32 %31, ptr %32, align 4
  br label %34

33:                                               ; preds = %20
  call void @_ZN4llvm8RegisterC2Ej(ptr noundef nonnull align 4 dereferenceable(4) %10, i32 noundef 0)
  br label %34

34:                                               ; preds = %33, %28
  %35 = load ptr, ptr %6, align 8
  %36 = load i32, ptr %7, align 4
  %37 = call noundef nonnull align 8 dereferenceable(32) ptr @_ZN4llvm12MachineInstr10getOperandEj(ptr noundef nonnull align 8 dereferenceable(70) %35, i32 noundef %36)
  %38 = call i32 @_ZNK4llvm14MachineOperand6getRegEv(ptr noundef nonnull align 8 dereferenceable(32) %37)
  %39 = getelementptr inbounds nuw %"class.llvm::Register", ptr %11, i32 0, i32 0
  store i32 %38, ptr %39, align 4
  %40 = load ptr, ptr %6, align 8
  %41 = load i32, ptr %8, align 4
  %42 = call noundef nonnull align 8 dereferenceable(32) ptr @_ZN4llvm12MachineInstr10getOperandEj(ptr noundef nonnull align 8 dereferenceable(70) %40, i32 noundef %41)
  %43 = call i32 @_ZNK4llvm14MachineOperand6getRegEv(ptr noundef nonnull align 8 dereferenceable(32) %42)
  %44 = getelementptr inbounds nuw %"class.llvm::Register", ptr %12, i32 0, i32 0
  store i32 %43, ptr %44, align 4
  %45 = load ptr, ptr %6, align 8
  %46 = call noundef nonnull align 8 dereferenceable(32) ptr @_ZNK4llvm12MachineInstr7getDescEv(ptr noundef nonnull align 8 dereferenceable(70) %45)
  %47 = load i32, ptr %7, align 4
  %48 = call noundef i32 @_ZNK4llvm11MCInstrDesc20getOperandConstraintEjNS_4MCOI17OperandConstraintE(ptr noundef nonnull align 8 dereferenceable(32) %46, i32 noundef %47, i32 noundef 0)
  %49 = icmp eq i32 0, %48
  %50 = zext i1 %49 to i8
  store i8 %50, ptr %13, align 1
  %51 = load ptr, ptr %6, align 8
  %52 = call noundef nonnull align 8 dereferenceable(32) ptr @_ZNK4llvm12MachineInstr7getDescEv(ptr noundef nonnull align 8 dereferenceable(70) %51)
  %53 = load i32, ptr %8, align 4
  %54 = call noundef i32 @_ZNK4llvm11MCInstrDesc20getOperandConstraintEjNS_4MCOI17OperandConstraintE(ptr noundef nonnull align 8 dereferenceable(32) %52, i32 noundef %53, i32 noundef 0)
  %55 = icmp eq i32 0, %54
  %56 = zext i1 %55 to i8
  store i8 %56, ptr %14, align 1
  %57 = load i8, ptr %9, align 1
  %58 = trunc i8 %57 to i1
  br i1 %58, label %59, label %64

59:                                               ; preds = %34
  %60 = call noundef zeroext i1 @_ZNK4llvm8RegistereqERKS0_(ptr noundef nonnull align 4 dereferenceable(4) %10, ptr noundef nonnull align 4 dereferenceable(4) %11)
  br i1 %60, label %61, label %64

61:                                               ; preds = %59
  %62 = load i8, ptr %13, align 1
  %63 = trunc i8 %62 to i1
  br i1 %63, label %72, label %64

64:                                               ; preds = %61, %59, %34
  %65 = load i8, ptr %9, align 1
  %66 = trunc i8 %65 to i1
  br i1 %66, label %67, label %74

67:                                               ; preds = %64
  %68 = call noundef zeroext i1 @_ZNK4llvm8RegistereqERKS0_(ptr noundef nonnull align 4 dereferenceable(4) %10, ptr noundef nonnull align 4 dereferenceable(4) %12)
  br i1 %68, label %69, label %74

69:                                               ; preds = %67
  %70 = load i8, ptr %14, align 1
  %71 = trunc i8 %70 to i1
  br i1 %71, label %72, label %74

72:                                               ; preds = %69, %61
  %73 = load i32, ptr %7, align 4
  store i32 %73, ptr %4, align 4
  br label %86

74:                                               ; preds = %69, %67, %64
  %75 = load ptr, ptr %6, align 8
  %76 = load i32, ptr %7, align 4
  %77 = load i32, ptr %8, align 4
  %78 = call noundef ptr @_ZNK4llvm15TargetInstrInfo18commuteInstructionERNS_12MachineInstrEbjj(ptr noundef nonnull align 8 dereferenceable(80) %15, ptr noundef nonnull align 8 dereferenceable(70) %75, i1 noundef zeroext false, i32 noundef %76, i32 noundef %77)
  %79 = icmp ne ptr %78, null
  br i1 %79, label %80, label %82

80:                                               ; preds = %74
  %81 = load i32, ptr %8, align 4
  br label %84

82:                                               ; preds = %74
  %83 = load i32, ptr %7, align 4
  br label %84

84:                                               ; preds = %82, %80
  %85 = phi i32 [ %81, %80 ], [ %83, %82 ]
  store i32 %85, ptr %4, align 4
  br label %86

86:                                               ; preds = %84, %72, %18
  %87 = load i32, ptr %4, align 4
  ret i32 %87
}