; Function Attrs: mustprogress nounwind uwtable
define dso_local noundef i32 @_ZNK4llvm12X86InstrInfo22commuteOperandsForFoldERNS_12MachineInstrEj(ptr noundef nonnull align 8 dereferenceable(416) %0, ptr noundef nonnull align 8 dereferenceable(70) %1, i32 noundef %2) local_unnamed_addr #1 align 2 {
  %4 = alloca i32, align 4
  %5 = alloca i32, align 4
  store i32 %2, ptr %4, align 4
  store i32 -1, ptr %5, align 4
  %6 = call noundef zeroext i1 @_ZNK4llvm12X86InstrInfo21findCommutedOpIndicesERKNS_12MachineInstrERjS4_(ptr noundef nonnull align 8 dereferenceable(416) %0, ptr noundef nonnull align 8 dereferenceable(70) %1, ptr noundef nonnull align 4 dereferenceable(4) %4, ptr noundef nonnull align 4 dereferenceable(4) %5)
  br i1 %6, label %9, label %7

7:                                                ; preds = %3
  %8 = load i32, ptr %4, align 4
  br label %69

9:                                                ; preds = %3
  %10 = getelementptr inbounds nuw i8, ptr %1, i64 16
  %11 = load ptr, ptr %10, align 8
  %12 = getelementptr inbounds nuw i8, ptr %11, i64 4
  %13 = load i8, ptr %12, align 4
  %.not = icmp eq i8 %13, 0
  %.phi.trans.insert = getelementptr inbounds nuw i8, ptr %1, i64 32
  %.pre = load ptr, ptr %.phi.trans.insert, align 8
  br i1 %.not, label %._crit_edge, label %14

14:                                               ; preds = %9
  %15 = getelementptr inbounds nuw i8, ptr %.pre, i64 4
  %16 = load i32, ptr %15, align 4
  br label %._crit_edge

._crit_edge:                                      ; preds = %9, %14
  %.sroa.024.0 = phi i32 [ %16, %14 ], [ 0, %9 ]
  %17 = load i32, ptr %4, align 4
  %18 = zext i32 %17 to i64
  %19 = getelementptr inbounds nuw %"class.llvm::MachineOperand", ptr %.pre, i64 %18, i32 1
  %20 = load i32, ptr %19, align 4
  %21 = load i32, ptr %5, align 4
  %22 = zext i32 %21 to i64
  %23 = getelementptr inbounds nuw %"class.llvm::MachineOperand", ptr %.pre, i64 %22, i32 1
  %24 = load i32, ptr %23, align 4
  %25 = getelementptr inbounds nuw i8, ptr %11, i64 2
  %26 = load i16, ptr %25, align 2
  %27 = zext i16 %26 to i32
  %28 = icmp ult i32 %17, %27
  br i1 %28, label %29, label %_ZNK4llvm11MCInstrDesc20getOperandConstraintEjNS_4MCOI17OperandConstraintE.exit

29:                                               ; preds = %._crit_edge
  %30 = load i16, ptr %11, align 8
  %31 = zext i16 %30 to i64
  %32 = getelementptr inbounds nuw %"class.llvm::MCInstrDesc", ptr %11, i64 %31
  %33 = getelementptr inbounds nuw i8, ptr %32, i64 32
  %34 = getelementptr inbounds nuw i8, ptr %11, i64 12
  %35 = load i16, ptr %34, align 4
  %36 = zext i16 %35 to i64
  %37 = getelementptr inbounds nuw %"class.llvm::MCOperandInfo", ptr %33, i64 %36
  %38 = getelementptr inbounds nuw %"class.llvm::MCOperandInfo", ptr %37, i64 %18, i32 3
  %39 = load i16, ptr %38, align 2
  %40 = zext i16 %39 to i32
  %41 = and i32 %40, 1
  %.not.i = icmp eq i32 %41, 0
  br i1 %.not.i, label %_ZNK4llvm11MCInstrDesc20getOperandConstraintEjNS_4MCOI17OperandConstraintE.exit, label %42

42:                                               ; preds = %29
  %43 = and i32 %40, 240
  %44 = icmp ne i32 %43, 0
  br label %_ZNK4llvm11MCInstrDesc20getOperandConstraintEjNS_4MCOI17OperandConstraintE.exit

_ZNK4llvm11MCInstrDesc20getOperandConstraintEjNS_4MCOI17OperandConstraintE.exit: ; preds = %._crit_edge, %29, %42
  %.0.i = phi i1 [ %44, %42 ], [ true, %._crit_edge ], [ true, %29 ]
  %45 = icmp ult i32 %21, %27
  br i1 %45, label %46, label %_ZNK4llvm11MCInstrDesc20getOperandConstraintEjNS_4MCOI17OperandConstraintE.exit22

46:                                               ; preds = %_ZNK4llvm11MCInstrDesc20getOperandConstraintEjNS_4MCOI17OperandConstraintE.exit
  %47 = load i16, ptr %11, align 8
  %48 = zext i16 %47 to i64
  %49 = getelementptr inbounds nuw %"class.llvm::MCInstrDesc", ptr %11, i64 %48
  %50 = getelementptr inbounds nuw i8, ptr %49, i64 32
  %51 = getelementptr inbounds nuw i8, ptr %11, i64 12
  %52 = load i16, ptr %51, align 4
  %53 = zext i16 %52 to i64
  %54 = getelementptr inbounds nuw %"class.llvm::MCOperandInfo", ptr %50, i64 %53
  %55 = getelementptr inbounds nuw %"class.llvm::MCOperandInfo", ptr %54, i64 %22, i32 3
  %56 = load i16, ptr %55, align 2
  %57 = zext i16 %56 to i32
  %58 = and i32 %57, 1
  %.not.i21 = icmp eq i32 %58, 0
  br i1 %.not.i21, label %_ZNK4llvm11MCInstrDesc20getOperandConstraintEjNS_4MCOI17OperandConstraintE.exit22, label %59

59:                                               ; preds = %46
  %60 = and i32 %57, 240
  %61 = icmp ne i32 %60, 0
  br label %_ZNK4llvm11MCInstrDesc20getOperandConstraintEjNS_4MCOI17OperandConstraintE.exit22

_ZNK4llvm11MCInstrDesc20getOperandConstraintEjNS_4MCOI17OperandConstraintE.exit22: ; preds = %_ZNK4llvm11MCInstrDesc20getOperandConstraintEjNS_4MCOI17OperandConstraintE.exit, %46, %59
  %.0.i20 = phi i1 [ %61, %59 ], [ true, %_ZNK4llvm11MCInstrDesc20getOperandConstraintEjNS_4MCOI17OperandConstraintE.exit ], [ true, %46 ]
  br i1 %.not, label %.critedge, label %62

62:                                               ; preds = %_ZNK4llvm11MCInstrDesc20getOperandConstraintEjNS_4MCOI17OperandConstraintE.exit22
  %63 = icmp ne i32 %.sroa.024.0, %20
  %brmerge = or i1 %63, %.0.i
  %64 = icmp ne i32 %.sroa.024.0, %24
  %brmerge19 = or i1 %64, %.0.i20
  %or.cond = select i1 %brmerge, i1 %brmerge19, i1 false
  br i1 %or.cond, label %.critedge, label %69

.critedge:                                        ; preds = %62, %_ZNK4llvm11MCInstrDesc20getOperandConstraintEjNS_4MCOI17OperandConstraintE.exit22
  %65 = call noundef ptr @_ZNK4llvm15TargetInstrInfo18commuteInstructionERNS_12MachineInstrEbjj(ptr noundef nonnull align 8 dereferenceable(80) %0, ptr noundef nonnull align 8 dereferenceable(70) %1, i1 noundef zeroext false, i32 noundef %17, i32 noundef %21) #29
  %.not14 = icmp eq ptr %65, null
  %66 = load i32, ptr %5, align 4
  %67 = load i32, ptr %4, align 4
  %68 = select i1 %.not14, i32 %67, i32 %66
  br label %69

69:                                               ; preds = %62, %.critedge, %7
  %.0 = phi i32 [ %68, %.critedge ], [ %8, %7 ], [ %17, %62 ]
  ret i32 %.0
}